target datalayout = "e-m:e-p270:32:32-p271:32:32-p272:64:64-i64:64-i128:128-f80:128-n8:16:32:64-S128"
target triple = "x86_64-pc-linux-gnu"

@.str = private unnamed_addr constant [35 x i8] c"../openssl/crypto/pkcs12/p12_utl.c\00", align 1

; Function Attrs: nounwind uwtable
define ptr @OPENSSL_uni2asc(ptr noundef %0, i32 noundef %1) #0 {
  %3 = alloca ptr, align 8
  %4 = alloca ptr, align 8
  %5 = alloca i32, align 4
  %6 = alloca i32, align 4
  %7 = alloca i32, align 4
  %8 = alloca ptr, align 8
  %9 = alloca i32, align 4
  store ptr %0, ptr %4, align 8, !tbaa !3
  store i32 %1, ptr %5, align 4, !tbaa !8
  call void @llvm.lifetime.start.p0(i64 4, ptr %6) #4
  call void @llvm.lifetime.start.p0(i64 4, ptr %7) #4
  call void @llvm.lifetime.start.p0(i64 8, ptr %8) #4
  %10 = load i32, ptr %5, align 4, !tbaa !8
  %11 = and i32 %10, 1
  %12 = icmp ne i32 %11, 0
  br i1 %12, label %13, label %14

13:                                               ; preds = %2
  store ptr null, ptr %3, align 8
  store i32 1, ptr %9, align 4
  br label %69

14:                                               ; preds = %2
  %15 = load i32, ptr %5, align 4, !tbaa !8
  %16 = icmp slt i32 %15, 0
  br i1 %16, label %17, label %18

17:                                               ; preds = %14
  store ptr null, ptr %3, align 8
  store i32 1, ptr %9, align 4
  br label %69

18:                                               ; preds = %14
  %19 = load i32, ptr %5, align 4, !tbaa !8
  %20 = sdiv i32 %19, 2
  store i32 %20, ptr %6, align 4, !tbaa !8
  %21 = load i32, ptr %5, align 4, !tbaa !8
  %22 = icmp ne i32 %21, 0
  br i1 %22, label %23, label %32

23:                                               ; preds = %18
  %24 = load ptr, ptr %4, align 8, !tbaa !3
  %25 = load i32, ptr %5, align 4, !tbaa !8
  %26 = sub nsw i32 %25, 1
  %27 = sext i32 %26 to i64
  %28 = getelementptr inbounds i8, ptr %24, i64 %27
  %29 = load i8, ptr %28, align 1, !tbaa !14
  %30 = zext i8 %29 to i32
  %31 = icmp ne i32 %30, 0
  br i1 %31, label %32, label %35

32:                                               ; preds = %23, %18
  %33 = load i32, ptr %6, align 4, !tbaa !8
  %34 = add nsw i32 %33, 1
  store i32 %34, ptr %6, align 4, !tbaa !8
  br label %35

35:                                               ; preds = %32, %23
  %36 = load ptr, ptr %4, align 8, !tbaa !3
  %37 = getelementptr inbounds nuw i8, ptr %36, i32 1
  store ptr %37, ptr %4, align 8, !tbaa !3
  %38 = load i32, ptr %6, align 4, !tbaa !8
  %39 = sext i32 %38 to i64
  %40 = call noalias ptr @CRYPTO_malloc(i64 noundef %39, ptr noundef @.str, i32 noundef 60)
  store ptr %40, ptr %8, align 8, !tbaa !3
  %41 = icmp eq ptr %40, null
  br i1 %41, label %42, label %43

42:                                               ; preds = %35
  store ptr null, ptr %3, align 8
  store i32 1, ptr %9, align 4
  br label %69

43:                                               ; preds = %35
  store i32 0, ptr %7, align 4, !tbaa !8
  br label %44

44:                                               ; preds = %59, %43
  %45 = load i32, ptr %7, align 4, !tbaa !8
  %46 = load i32, ptr %5, align 4, !tbaa !8
  %47 = icmp slt i32 %45, %46
  br i1 %47, label %48, label %62

48:                                               ; preds = %44
  %49 = load ptr, ptr %4, align 8, !tbaa !3
  %50 = load i32, ptr %7, align 4, !tbaa !8
  %51 = sext i32 %50 to i64
  %52 = getelementptr inbounds i8, ptr %49, i64 %51
  %53 = load i8, ptr %52, align 1, !tbaa !14
  %54 = load ptr, ptr %8, align 8, !tbaa !3
  %55 = load i32, ptr %7, align 4, !tbaa !8
  %56 = ashr i32 %55, 1
  %57 = sext i32 %56 to i64
  %58 = getelementptr inbounds i8, ptr %54, i64 %57
  store i8 %53, ptr %58, align 1, !tbaa !14
  br label %59

59:                                               ; preds = %48
  %60 = load i32, ptr %7, align 4, !tbaa !8
  %61 = add nsw i32 %60, 2
  store i32 %61, ptr %7, align 4, !tbaa !8
  br label %44, !llvm.loop !17

62:                                               ; preds = %44
  %63 = load ptr, ptr %8, align 8, !tbaa !3
  %64 = load i32, ptr %6, align 4, !tbaa !8
  %65 = sub nsw i32 %64, 1
  %66 = sext i32 %65 to i64
  %67 = getelementptr inbounds i8, ptr %63, i64 %66
  store i8 0, ptr %67, align 1, !tbaa !14
  %68 = load ptr, ptr %8, align 8, !tbaa !3
  store ptr %68, ptr %3, align 8
  store i32 1, ptr %9, align 4
  br label %69

69:                                               ; preds = %62, %42, %17, %13
  call void @llvm.lifetime.end.p0(i64 8, ptr %8) #4
  call void @llvm.lifetime.end.p0(i64 4, ptr %7) #4
  call void @llvm.lifetime.end.p0(i64 4, ptr %6) #4
  %70 = load ptr, ptr %3, align 8
  ret ptr %70
}