; Function Attrs: nounwind uwtable
define noalias ptr @OPENSSL_uni2asc(ptr noundef readonly captures(none) %0, i32 noundef %1) local_unnamed_addr #0 {
  %3 = and i32 %1, -2147483647
  %or.cond.not = icmp eq i32 %3, 0
  br i1 %or.cond.not, label %4, label %27

4:                                                ; preds = %2
  %5 = lshr exact i32 %1, 1
  %.not23 = icmp eq i32 %1, 0
  br i1 %.not23, label %11, label %6

6:                                                ; preds = %4
  %7 = zext nneg i32 %1 to i64
  %8 = getelementptr i8, ptr %0, i64 %7
  %9 = getelementptr i8, ptr %8, i64 -1
  %10 = load i8, ptr %9, align 1, !tbaa !3
  %.not24 = icmp eq i8 %10, 0
  br i1 %.not24, label %13, label %11

11:                                               ; preds = %6, %4
  %12 = add nuw nsw i32 %5, 1
  br label %13

13:                                               ; preds = %11, %6
  %.020 = phi i32 [ %12, %11 ], [ %5, %6 ]
  %14 = getelementptr inbounds nuw i8, ptr %0, i64 1
  %15 = zext nneg i32 %.020 to i64
  %16 = tail call noalias ptr @CRYPTO_malloc(i64 noundef %15, ptr noundef nonnull @.str, i32 noundef 60) #6
  %17 = icmp eq ptr %16, null
  br i1 %17, label %27, label %.preheader

.preheader:                                       ; preds = %13
  %.not = icmp eq i32 %1, 0
  br i1 %.not, label %._crit_edge, label %.lr.ph.preheader

.lr.ph.preheader:                                 ; preds = %.preheader
  %18 = zext nneg i32 %1 to i64
  br label %.lr.ph

.lr.ph:                                           ; preds = %.lr.ph.preheader, %.lr.ph
  %indvars.iv = phi i64 [ 0, %.lr.ph.preheader ], [ %indvars.iv.next, %.lr.ph ]
  %19 = getelementptr inbounds nuw i8, ptr %14, i64 %indvars.iv
  %20 = load i8, ptr %19, align 1, !tbaa !3
  %21 = lshr exact i64 %indvars.iv, 1
  %22 = getelementptr inbounds nuw i8, ptr %16, i64 %21
  store i8 %20, ptr %22, align 1, !tbaa !3
  %indvars.iv.next = add nuw nsw i64 %indvars.iv, 2
  %23 = icmp samesign ult i64 %indvars.iv.next, %18
  br i1 %23, label %.lr.ph, label %._crit_edge, !llvm.loop !13

._crit_edge:                                      ; preds = %.lr.ph, %.preheader
  %24 = zext nneg i32 %.020 to i64
  %25 = getelementptr i8, ptr %16, i64 %24
  %26 = getelementptr i8, ptr %25, i64 -1
  store i8 0, ptr %26, align 1, !tbaa !3
  br label %27

27:                                               ; preds = %13, %2, %._crit_edge
  %.0 = phi ptr [ %16, %._crit_edge ], [ null, %2 ], [ null, %13 ]
  ret ptr %.0
}